target datalayout = "e-m:e-p270:32:32-p271:32:32-p272:64:64-i64:64-i128:128-f80:128-n8:16:32:64-S128"
target triple = "x86_64-pc-linux-gnu"

@hf_bthci_evt_num_handles = internal global i32 0, align 4
@hf_bthci_evt_connection_handle = internal global i32 0, align 4
@hf_bthci_evt_num_compl_packets = internal global i32 0, align 4

; Function Attrs: null_pointer_is_valid sspstrong uwtable
define internal i32 @dissect_bthci_evt_number_of_completed_packets(ptr noundef %0, i32 noundef %1, ptr noundef %2, ptr noundef %3) #1 {
  %5 = alloca ptr, align 8
  %6 = alloca i32, align 4
  %7 = alloca ptr, align 8
  %8 = alloca ptr, align 8
  %9 = alloca i8, align 1
  store ptr %0, ptr %5, align 8
  store i32 %1, ptr %6, align 4
  store ptr %2, ptr %7, align 8
  store ptr %3, ptr %8, align 8
  call void @llvm.lifetime.start.p0(i64 1, ptr %9) #11
  %10 = load ptr, ptr %5, align 8
  %11 = load i32, ptr %6, align 4
  %12 = call zeroext i8 @tvb_get_uint8(ptr noundef %10, i32 noundef %11)
  store i8 %12, ptr %9, align 1
  %13 = load ptr, ptr %8, align 8
  %14 = load i32, ptr @hf_bthci_evt_num_handles, align 4
  %15 = load ptr, ptr %5, align 8
  %16 = load i32, ptr %6, align 4
  %17 = call ptr @proto_tree_add_item(ptr noundef %13, i32 noundef %14, ptr noundef %15, i32 noundef %16, i32 noundef 1, i32 noundef -2147483648)
  %18 = load i32, ptr %6, align 4
  %19 = add i32 %18, 1
  store i32 %19, ptr %6, align 4
  br label %20

20:                                               ; preds = %24, %4
  %21 = load i8, ptr %9, align 1
  %22 = add i8 %21, -1
  store i8 %22, ptr %9, align 1
  %23 = icmp ne i8 %21, 0
  br i1 %23, label %24, label %39

24:                                               ; preds = %20
  %25 = load ptr, ptr %8, align 8
  %26 = load i32, ptr @hf_bthci_evt_connection_handle, align 4
  %27 = load ptr, ptr %5, align 8
  %28 = load i32, ptr %6, align 4
  %29 = call ptr @proto_tree_add_item(ptr noundef %25, i32 noundef %26, ptr noundef %27, i32 noundef %28, i32 noundef 2, i32 noundef -2147483648)
  %30 = load i32, ptr %6, align 4
  %31 = add i32 %30, 2
  store i32 %31, ptr %6, align 4
  %32 = load ptr, ptr %8, align 8
  %33 = load i32, ptr @hf_bthci_evt_num_compl_packets, align 4
  %34 = load ptr, ptr %5, align 8
  %35 = load i32, ptr %6, align 4
  %36 = call ptr @proto_tree_add_item(ptr noundef %32, i32 noundef %33, ptr noundef %34, i32 noundef %35, i32 noundef 2, i32 noundef -2147483648)
  %37 = load i32, ptr %6, align 4
  %38 = add i32 %37, 2
  store i32 %38, ptr %6, align 4
  br label %20, !llvm.loop !19

39:                                               ; preds = %20
  %40 = load i32, ptr %6, align 4
  call void @llvm.lifetime.end.p0(i64 1, ptr %9) #11
  ret i32 %40
}