; Function Attrs: null_pointer_is_valid sspstrong uwtable
define internal fastcc range(i32 3, 0) i32 @dissect_bthci_evt_number_of_completed_packets(ptr noundef %0, ptr noundef %1) unnamed_addr #1 {
  %3 = tail call zeroext i8 @tvb_get_uint8(ptr noundef %0, i32 noundef 2)
  %4 = load i32, ptr @hf_bthci_evt_num_handles, align 4
  %5 = tail call ptr @proto_tree_add_item(ptr noundef %1, i32 noundef %4, ptr noundef %0, i32 noundef 2, i32 noundef 1, i32 noundef -2147483648)
  %.not1 = icmp eq i8 %3, 0
  br i1 %.not1, label %._crit_edge, label %.lr.ph

.lr.ph:                                           ; preds = %2, %.lr.ph
  %.03 = phi i8 [ %6, %.lr.ph ], [ %3, %2 ]
  %.0152 = phi i32 [ %12, %.lr.ph ], [ 3, %2 ]
  %6 = add i8 %.03, -1
  %7 = load i32, ptr @hf_bthci_evt_connection_handle, align 4
  %8 = tail call ptr @proto_tree_add_item(ptr noundef %1, i32 noundef %7, ptr noundef %0, i32 noundef %.0152, i32 noundef 2, i32 noundef -2147483648)
  %9 = add nuw nsw i32 %.0152, 2
  %10 = load i32, ptr @hf_bthci_evt_num_compl_packets, align 4
  %11 = tail call ptr @proto_tree_add_item(ptr noundef %1, i32 noundef %10, ptr noundef %0, i32 noundef %9, i32 noundef 2, i32 noundef -2147483648)
  %12 = add nuw nsw i32 %.0152, 4
  %.not = icmp eq i8 %6, 0
  br i1 %.not, label %._crit_edge, label %.lr.ph, !llvm.loop !19

._crit_edge:                                      ; preds = %.lr.ph, %2
  %.015.lcssa = phi i32 [ 3, %2 ], [ %12, %.lr.ph ]
  ret i32 %.015.lcssa
}